target datalayout = "e-m:e-p270:32:32-p271:32:32-p272:64:64-i64:64-i128:128-f80:128-n8:16:32:64-S128"
target triple = "x86_64-unknown-linux-gnu"

%class.btVector3 = type { [4 x float] }
%class.btKinematicCharacterController = type <{ %class.btCharacterControllerInterface, float, [4 x i8], ptr, ptr, float, float, float, float, float, float, float, float, float, float, float, float, float, %class.btVector3, %class.btVector3, %class.btVector3, %class.btVector3, %class.btVector3, float, %class.btVector3, %class.btQuaternion, %class.btQuaternion, %class.btAlignedObjectArray, i8, [3 x i8], %class.btVector3, float, float, i8, i8, i8, i8, float, %class.btVector3, %class.btVector3, i8, i8, i8, i8 }>
%class.btCharacterControllerInterface = type { %class.btActionInterface }
%class.btActionInterface = type { ptr }
%class.btQuaternion = type { %class.btQuadWord }
%class.btQuadWord = type { [4 x float] }
%class.btAlignedObjectArray = type <{ %class.btAlignedAllocator, [3 x i8], i32, i32, [4 x i8], ptr, i8, [7 x i8] }>
%class.btAlignedAllocator = type { i8 }
%class.btTransform = type { %class.btMatrix3x3, %class.btVector3 }
%class.btMatrix3x3 = type { [3 x %class.btVector3] }
%struct.btBroadphasePair = type { ptr, ptr, ptr, %union.anon.16 }
%union.anon.16 = type { ptr }
%class.btAlignedObjectArray.0 = type <{ %class.btAlignedAllocator.1, [3 x i8], i32, i32, [4 x i8], ptr, i8, [7 x i8] }>
%class.btAlignedAllocator.1 = type { i8 }
%class.btCollisionWorld = type <{ ptr, %class.btAlignedObjectArray.4, ptr, %struct.btDispatcherInfo, ptr, ptr, i8, [7 x i8] }>
%class.btAlignedObjectArray.4 = type <{ %class.btAlignedAllocator.5, [3 x i8], i32, i32, [4 x i8], ptr, i8, [7 x i8] }>
%class.btAlignedAllocator.5 = type { i8 }
%struct.btDispatcherInfo = type <{ float, i32, i32, float, i8, [7 x i8], ptr, i8, i8, i8, i8, float, i8, [3 x i8], float, i8, [7 x i8] }>
%class.btPairCachingGhostObject = type { %class.btGhostObject, ptr }
%class.btGhostObject = type { %class.btCollisionObject.base, [4 x i8], %class.btAlignedObjectArray.4 }
%class.btCollisionObject.base = type <{ ptr, %class.btTransform, %class.btTransform, %class.btVector3, %class.btVector3, %class.btVector3, i32, float, ptr, ptr, ptr, ptr, i32, i32, i32, i32, i32, float, float, float, float, float, float, float, i32, [4 x i8], ptr, i32, i32, i32, float, float, float, i32, [4 x i8], %class.btAlignedObjectArray.0, i32, %class.btVector3 }>
%class.btAlignedObjectArray.8 = type <{ %class.btAlignedAllocator.9, [3 x i8], i32, i32, [4 x i8], ptr, i8, [7 x i8] }>
%class.btAlignedAllocator.9 = type { i8 }

; Function Attrs: mustprogress nounwind uwtable
define linkonce_odr dso_local noundef ptr @_ZN16btCollisionWorld13getDispatcherEv(ptr noundef nonnull align 8 dereferenceable(121) %this) #1 comdat align 2 {
entry:
  %this.addr = alloca ptr, align 8
  store ptr %this, ptr %this.addr, align 8
  %this1 = load ptr, ptr %this.addr, align 8
  %m_dispatcher1 = getelementptr inbounds %class.btCollisionWorld, ptr %this1, i32 0, i32 2
  %0 = load ptr, ptr %m_dispatcher1, align 8
  ret ptr %0
}

; Function Attrs: mustprogress nounwind uwtable
define linkonce_odr dso_local noundef nonnull align 8 dereferenceable(32) ptr @_ZN20btAlignedObjectArrayI16btBroadphasePairEixEi(ptr noundef nonnull align 8 dereferenceable(25) %this, i32 noundef %n) #1 comdat align 2 {
entry:
  %this.addr = alloca ptr, align 8
  %n.addr = alloca i32, align 4
  store ptr %this, ptr %this.addr, align 8
  store i32 %n, ptr %n.addr, align 4
  %this1 = load ptr, ptr %this.addr, align 8
  %m_data = getelementptr inbounds %class.btAlignedObjectArray.8, ptr %this1, i32 0, i32 5
  %0 = load ptr, ptr %m_data, align 8
  %1 = load i32, ptr %n.addr, align 4
  %idxprom = sext i32 %1 to i64
  %arrayidx = getelementptr inbounds %struct.btBroadphasePair, ptr %0, i64 %idxprom
  ret ptr %arrayidx
}

; Function Attrs: mustprogress nounwind uwtable
define linkonce_odr dso_local noundef i32 @_ZNK20btAlignedObjectArrayI16btBroadphasePairE4sizeEv(ptr noundef nonnull align 8 dereferenceable(25) %this) #1 comdat align 2 {
entry:
  %this.addr = alloca ptr, align 8
  store ptr %this, ptr %this.addr, align 8
  %this1 = load ptr, ptr %this.addr, align 8
  %m_size = getelementptr inbounds %class.btAlignedObjectArray.8, ptr %this1, i32 0, i32 2
  %0 = load i32, ptr %m_size, align 4
  ret i32 %0
}

; Function Attrs: mustprogress nounwind uwtable
define linkonce_odr dso_local noundef ptr @_ZN24btPairCachingGhostObject23getOverlappingPairCacheEv(ptr noundef nonnull align 8 dereferenceable(416) %this) #1 comdat align 2 {
entry:
  %this.addr = alloca ptr, align 8
  store ptr %this, ptr %this.addr, align 8
  %this1 = load ptr, ptr %this.addr, align 8
  %m_hashPairCache = getelementptr inbounds %class.btPairCachingGhostObject, ptr %this1, i32 0, i32 1
  %0 = load ptr, ptr %m_hashPairCache, align 8
  ret ptr %0
}

; Function Attrs: mustprogress nounwind uwtable
define linkonce_odr dso_local void @_ZN9btVector38setValueERKfS1_S1_(ptr noundef nonnull align 4 dereferenceable(16) %this, ptr noundef nonnull align 4 dereferenceable(4) %_x, ptr noundef nonnull align 4 dereferenceable(4) %_y, ptr noundef nonnull align 4 dereferenceable(4) %_z) #1 comdat align 2 {
entry:
  %this.addr = alloca ptr, align 8
  %_x.addr = alloca ptr, align 8
  %_y.addr = alloca ptr, align 8
  %_z.addr = alloca ptr, align 8
  store ptr %this, ptr %this.addr, align 8
  store ptr %_x, ptr %_x.addr, align 8
  store ptr %_y, ptr %_y.addr, align 8
  store ptr %_z, ptr %_z.addr, align 8
  %this1 = load ptr, ptr %this.addr, align 8
  %0 = load ptr, ptr %_x.addr, align 8
  %1 = load float, ptr %0, align 4
  %m_floats = getelementptr inbounds %class.btVector3, ptr %this1, i32 0, i32 0
  %arrayidx = getelementptr inbounds [4 x float], ptr %m_floats, i64 0, i64 0
  store float %1, ptr %arrayidx, align 4
  %2 = load ptr, ptr %_y.addr, align 8
  %3 = load float, ptr %2, align 4
  %m_floats2 = getelementptr inbounds %class.btVector3, ptr %this1, i32 0, i32 0
  %arrayidx3 = getelementptr inbounds [4 x float], ptr %m_floats2, i64 0, i64 1
  store float %3, ptr %arrayidx3, align 4
  %4 = load ptr, ptr %_z.addr, align 8
  %5 = load float, ptr %4, align 4
  %m_floats4 = getelementptr inbounds %class.btVector3, ptr %this1, i32 0, i32 0
  %arrayidx5 = getelementptr inbounds [4 x float], ptr %m_floats4, i64 0, i64 2
  store float %5, ptr %arrayidx5, align 4
  %m_floats6 = getelementptr inbounds %class.btVector3, ptr %this1, i32 0, i32 0
  %arrayidx7 = getelementptr inbounds [4 x float], ptr %m_floats6, i64 0, i64 3
  store float 0.000000e+00, ptr %arrayidx7, align 4
  ret void
}

; Function Attrs: mustprogress uwtable
define dso_local void @_ZN30btKinematicCharacterController5resetEP16btCollisionWorld(ptr noundef nonnull align 8 dereferenceable(319) %this, ptr noundef %collisionWorld) unnamed_addr #3 align 2 {
entry:
  %this.addr = alloca ptr, align 8
  %collisionWorld.addr = alloca ptr, align 8
  %ref.tmp = alloca float, align 4
  %ref.tmp2 = alloca float, align 4
  %ref.tmp3 = alloca float, align 4
  %cache = alloca ptr, align 8
  store ptr %this, ptr %this.addr, align 8
  store ptr %collisionWorld, ptr %collisionWorld.addr, align 8
  %this1 = load ptr, ptr %this.addr, align 8
  %m_verticalVelocity = getelementptr inbounds %class.btKinematicCharacterController, ptr %this1, i32 0, i32 6
  store float 0.000000e+00, ptr %m_verticalVelocity, align 4
  %m_verticalOffset = getelementptr inbounds %class.btKinematicCharacterController, ptr %this1, i32 0, i32 7
  store float 0.000000e+00, ptr %m_verticalOffset, align 8
  %m_wasOnGround = getelementptr inbounds %class.btKinematicCharacterController, ptr %this1, i32 0, i32 33
  store i8 0, ptr %m_wasOnGround, align 4
  %m_wasJumping = getelementptr inbounds %class.btKinematicCharacterController, ptr %this1, i32 0, i32 34
  store i8 0, ptr %m_wasJumping, align 1
  %m_walkDirection = getelementptr inbounds %class.btKinematicCharacterController, ptr %this1, i32 0, i32 18
  store float 0.000000e+00, ptr %ref.tmp, align 4
  store float 0.000000e+00, ptr %ref.tmp2, align 4
  store float 0.000000e+00, ptr %ref.tmp3, align 4
  call void @_ZN9btVector38setValueERKfS1_S1_(ptr noundef nonnull align 4 dereferenceable(16) %m_walkDirection, ptr noundef nonnull align 4 dereferenceable(4) %ref.tmp, ptr noundef nonnull align 4 dereferenceable(4) %ref.tmp2, ptr noundef nonnull align 4 dereferenceable(4) %ref.tmp3)
  %m_velocityTimeInterval = getelementptr inbounds %class.btKinematicCharacterController, ptr %this1, i32 0, i32 37
  store float 0.000000e+00, ptr %m_velocityTimeInterval, align 8
  %m_ghostObject = getelementptr inbounds %class.btKinematicCharacterController, ptr %this1, i32 0, i32 3
  %0 = load ptr, ptr %m_ghostObject, align 8
  %call = call noundef ptr @_ZN24btPairCachingGhostObject23getOverlappingPairCacheEv(ptr noundef nonnull align 8 dereferenceable(416) %0)
  store ptr %call, ptr %cache, align 8
  br label %while.cond

while.cond:                                       ; preds = %while.body, %entry
  %1 = load ptr, ptr %cache, align 8
  %vtable = load ptr, ptr %1, align 8
  %vfn = getelementptr inbounds ptr, ptr %vtable, i64 7
  %2 = load ptr, ptr %vfn, align 8
  %call4 = call noundef nonnull align 8 dereferenceable(25) ptr %2(ptr noundef nonnull align 8 dereferenceable(120) %1)
  %call5 = call noundef i32 @_ZNK20btAlignedObjectArrayI16btBroadphasePairE4sizeEv(ptr noundef nonnull align 8 dereferenceable(25) %call4)
  %cmp = icmp sgt i32 %call5, 0
  br i1 %cmp, label %while.body, label %while.end

while.body:                                       ; preds = %while.cond
  %3 = load ptr, ptr %cache, align 8
  %4 = load ptr, ptr %cache, align 8
  %vtable6 = load ptr, ptr %4, align 8
  %vfn7 = getelementptr inbounds ptr, ptr %vtable6, i64 7
  %5 = load ptr, ptr %vfn7, align 8
  %call8 = call noundef nonnull align 8 dereferenceable(25) ptr %5(ptr noundef nonnull align 8 dereferenceable(120) %4)
  %call9 = call noundef nonnull align 8 dereferenceable(32) ptr @_ZN20btAlignedObjectArrayI16btBroadphasePairEixEi(ptr noundef nonnull align 8 dereferenceable(25) %call8, i32 noundef 0)
  %m_pProxy0 = getelementptr inbounds %struct.btBroadphasePair, ptr %call9, i32 0, i32 0
  %6 = load ptr, ptr %m_pProxy0, align 8
  %7 = load ptr, ptr %cache, align 8
  %vtable10 = load ptr, ptr %7, align 8
  %vfn11 = getelementptr inbounds ptr, ptr %vtable10, i64 7
  %8 = load ptr, ptr %vfn11, align 8
  %call12 = call noundef nonnull align 8 dereferenceable(25) ptr %8(ptr noundef nonnull align 8 dereferenceable(120) %7)
  %call13 = call noundef nonnull align 8 dereferenceable(32) ptr @_ZN20btAlignedObjectArrayI16btBroadphasePairEixEi(ptr noundef nonnull align 8 dereferenceable(25) %call12, i32 noundef 0)
  %m_pProxy1 = getelementptr inbounds %struct.btBroadphasePair, ptr %call13, i32 0, i32 1
  %9 = load ptr, ptr %m_pProxy1, align 8
  %10 = load ptr, ptr %collisionWorld.addr, align 8
  %call14 = call noundef ptr @_ZN16btCollisionWorld13getDispatcherEv(ptr noundef nonnull align 8 dereferenceable(121) %10)
  %vtable15 = load ptr, ptr %3, align 8
  %vfn16 = getelementptr inbounds ptr, ptr %vtable15, i64 3
  %11 = load ptr, ptr %vfn16, align 8
  %call17 = call noundef ptr %11(ptr noundef nonnull align 8 dereferenceable(120) %3, ptr noundef %6, ptr noundef %9, ptr noundef %call14)
  br label %while.cond, !llvm.loop !14

while.end:                                        ; preds = %while.cond
  ret void
}