; Function Attrs: mustprogress uwtable
define dso_local void @_ZN30btKinematicCharacterController5resetEP16btCollisionWorld(ptr nocapture noundef nonnull align 8 dereferenceable(319) %this, ptr nocapture noundef readonly %collisionWorld) unnamed_addr #13 align 2 {
entry:
  %m_verticalVelocity = getelementptr inbounds i8, ptr %this, i64 36
  store <2 x float> zeroinitializer, ptr %m_verticalVelocity, align 4
  %m_wasOnGround = getelementptr inbounds i8, ptr %this, i64 276
  store i8 0, ptr %m_wasOnGround, align 4
  %m_wasJumping = getelementptr inbounds i8, ptr %this, i64 277
  store i8 0, ptr %m_wasJumping, align 1
  %m_walkDirection = getelementptr inbounds i8, ptr %this, i64 84
  %m_velocityTimeInterval = getelementptr inbounds i8, ptr %this, i64 280
  store float 0.000000e+00, ptr %m_velocityTimeInterval, align 8
  %m_ghostObject = getelementptr inbounds i8, ptr %this, i64 16
  tail call void @llvm.memset.p0.i64(ptr noundef nonnull align 4 dereferenceable(16) %m_walkDirection, i8 0, i64 16, i1 false)
  %0 = load ptr, ptr %m_ghostObject, align 8
  %m_hashPairCache.i = getelementptr inbounds i8, ptr %0, i64 408
  %1 = load ptr, ptr %m_hashPairCache.i, align 8
  %vtable5 = load ptr, ptr %1, align 8
  %vfn6 = getelementptr inbounds i8, ptr %vtable5, i64 56
  %2 = load ptr, ptr %vfn6, align 8
  %call47 = tail call noundef nonnull align 8 dereferenceable(25) ptr %2(ptr noundef nonnull align 8 dereferenceable(120) %1)
  %m_size.i8 = getelementptr inbounds i8, ptr %call47, i64 4
  %3 = load i32, ptr %m_size.i8, align 4
  %cmp9 = icmp sgt i32 %3, 0
  br i1 %cmp9, label %while.body.lr.ph, label %while.end

while.body.lr.ph:                                 ; preds = %entry
  %m_dispatcher1.i = getelementptr inbounds i8, ptr %collisionWorld, i64 40
  br label %while.body

while.body:                                       ; preds = %while.body.lr.ph, %while.body
  %vtable6 = load ptr, ptr %1, align 8
  %vfn7 = getelementptr inbounds i8, ptr %vtable6, i64 56
  %4 = load ptr, ptr %vfn7, align 8
  %call8 = tail call noundef nonnull align 8 dereferenceable(25) ptr %4(ptr noundef nonnull align 8 dereferenceable(120) %1)
  %m_data.i = getelementptr inbounds i8, ptr %call8, i64 16
  %5 = load ptr, ptr %m_data.i, align 8
  %6 = load ptr, ptr %5, align 8
  %vtable10 = load ptr, ptr %1, align 8
  %vfn11 = getelementptr inbounds i8, ptr %vtable10, i64 56
  %7 = load ptr, ptr %vfn11, align 8
  %call12 = tail call noundef nonnull align 8 dereferenceable(25) ptr %7(ptr noundef nonnull align 8 dereferenceable(120) %1)
  %m_data.i4 = getelementptr inbounds i8, ptr %call12, i64 16
  %8 = load ptr, ptr %m_data.i4, align 8
  %m_pProxy1 = getelementptr inbounds i8, ptr %8, i64 8
  %9 = load ptr, ptr %m_pProxy1, align 8
  %10 = load ptr, ptr %m_dispatcher1.i, align 8
  %vtable15 = load ptr, ptr %1, align 8
  %vfn16 = getelementptr inbounds i8, ptr %vtable15, i64 24
  %11 = load ptr, ptr %vfn16, align 8
  %call17 = tail call noundef ptr %11(ptr noundef nonnull align 8 dereferenceable(120) %1, ptr noundef %6, ptr noundef %9, ptr noundef %10)
  %vtable = load ptr, ptr %1, align 8
  %vfn = getelementptr inbounds i8, ptr %vtable, i64 56
  %12 = load ptr, ptr %vfn, align 8
  %call4 = tail call noundef nonnull align 8 dereferenceable(25) ptr %12(ptr noundef nonnull align 8 dereferenceable(120) %1)
  %m_size.i = getelementptr inbounds i8, ptr %call4, i64 4
  %13 = load i32, ptr %m_size.i, align 4
  %cmp = icmp sgt i32 %13, 0
  br i1 %cmp, label %while.body, label %while.end, !llvm.loop !12

while.end:                                        ; preds = %while.body, %entry
  ret void
}